; Function Attrs: mustprogress nounwind uwtable
define void @_ZN7rocksdb14ThreadLocalPtrD2Ev(ptr noundef nonnull readonly align 4 captures(none) dereferenceable(4) %0) unnamed_addr #8 align 2 personality ptr @__gxx_personality_v0 {
  %2 = load atomic i8, ptr @_ZGVZN7rocksdb14ThreadLocalPtr8InstanceEvE4inst acquire, align 8
  %3 = icmp eq i8 %2, 0
  br i1 %3, label %4, label %15, !prof !4

4:                                                ; preds = %1
  %5 = tail call i32 @__cxa_guard_acquire(ptr nonnull @_ZGVZN7rocksdb14ThreadLocalPtr8InstanceEvE4inst) #19
  %.not.i = icmp eq i32 %5, 0
  br i1 %.not.i, label %15, label %6

6:                                                ; preds = %4
  %7 = invoke noalias noundef nonnull dereferenceable(232) ptr @_Znwm(i64 noundef 232) #20
          to label %8 unwind label %10

8:                                                ; preds = %6
  invoke void @_ZN7rocksdb14ThreadLocalPtr10StaticMetaC1Ev(ptr noundef nonnull align 8 dereferenceable(228) %7)
          to label %9 unwind label %12

9:                                                ; preds = %8
  store ptr %7, ptr @_ZZN7rocksdb14ThreadLocalPtr8InstanceEvE4inst, align 8, !tbaa !5
  tail call void @__cxa_guard_release(ptr nonnull @_ZGVZN7rocksdb14ThreadLocalPtr8InstanceEvE4inst) #19
  br label %15

10:                                               ; preds = %6
  %11 = landingpad { ptr, i32 }
          catch ptr null
  br label %14

12:                                               ; preds = %8
  %13 = landingpad { ptr, i32 }
          catch ptr null
  tail call void @_ZdlPvm(ptr noundef nonnull %7, i64 noundef 232) #21
  br label %14

14:                                               ; preds = %12, %10
  %.pn.i = phi { ptr, i32 } [ %13, %12 ], [ %11, %10 ]
  tail call void @__cxa_guard_abort(ptr nonnull @_ZGVZN7rocksdb14ThreadLocalPtr8InstanceEvE4inst) #19
  br label %.body

15:                                               ; preds = %9, %4, %1
  %16 = load ptr, ptr @_ZZN7rocksdb14ThreadLocalPtr8InstanceEvE4inst, align 8, !tbaa !5
  %17 = load i32, ptr %0, align 4, !tbaa !94
  invoke void @_ZN7rocksdb14ThreadLocalPtr10StaticMeta9ReclaimIdEj(ptr noundef nonnull align 8 dereferenceable(228) %16, i32 noundef %17)
          to label %18 unwind label %19

18:                                               ; preds = %15
  ret void

19:                                               ; preds = %15
  %20 = landingpad { ptr, i32 }
          catch ptr null
  br label %.body

.body:                                            ; preds = %14, %19
  %eh.lpad-body = phi { ptr, i32 } [ %20, %19 ], [ %.pn.i, %14 ]
  %21 = extractvalue { ptr, i32 } %eh.lpad-body, 0
  tail call void @__clang_call_terminate(ptr %21) #22
  unreachable
}